target datalayout = "e-m:e-p270:32:32-p271:32:32-p272:64:64-i64:64-i128:128-f80:128-n8:16:32:64-S128"
target triple = "x86_64-pc-linux-gnu"

%struct.expert_field = type { i32, i32 }

@hf_nfapi_length = internal global i32 0, align 4
@hf_nfapi_ul_cqi = internal global i32 0, align 4
@hf_nfapi_data_offset = internal global i32 0, align 4
@hf_nfapi_timing_advance = internal global i32 0, align 4
@hf_nfapi_timing_advance_r9 = internal global i32 0, align 4
@hf_nfapi_number_of_cc_reported = internal global i32 0, align 4
@ett_nfapi_cc = internal global i32 0, align 4
@ei_invalid_range = internal global %struct.expert_field zeroinitializer, align 4
@.str.1839 = private unnamed_addr constant [3 x i8] c"%s\00", align 1
@.str.1840 = private unnamed_addr constant [5 x i8] c"[%d]\00", align 1
@.str.2160 = private unnamed_addr constant [37 x i8] c"Invalid timing advance value [0..63]\00", align 1
@.str.2186 = private unnamed_addr constant [43 x i8] c"Invalid number of CC reported value [1..5]\00", align 1
@.str.2187 = private unnamed_addr constant [8 x i8] c"CC List\00", align 1
@.str.2188 = private unnamed_addr constant [39 x i8] c"Invalid timing advance value [0..7690]\00", align 1

; Function Attrs: nounwind uwtable
define internal void @dissect_array_value(ptr noundef %0, ptr noundef %1, ptr noundef %2, i32 noundef %3, i32 noundef %4, ptr noundef %5) #0 {
  %7 = alloca ptr, align 8
  %8 = alloca ptr, align 8
  %9 = alloca ptr, align 8
  %10 = alloca i32, align 4
  %11 = alloca i32, align 4
  %12 = alloca ptr, align 8
  %13 = alloca i16, align 2
  store ptr %0, ptr %7, align 8
  store ptr %1, ptr %8, align 8
  store ptr %2, ptr %9, align 8
  store i32 %3, ptr %10, align 4
  store i32 %4, ptr %11, align 4
  store ptr %5, ptr %12, align 8
  %14 = load i32, ptr %11, align 4
  %15 = icmp ugt i32 %14, 0
  br i1 %15, label %16, label %41

16:                                               ; preds = %6
  %17 = load ptr, ptr %7, align 8
  %18 = load i32, ptr %10, align 4
  %19 = load ptr, ptr %9, align 8
  %20 = call ptr (ptr, i32, i32, ptr, ...) @ptvcursor_add_text_with_subtree(ptr noundef %17, i32 noundef -1, i32 noundef %18, ptr noundef @.str.1839, ptr noundef %19)
  store i16 0, ptr %13, align 2
  br label %21

21:                                               ; preds = %36, %16
  %22 = load i16, ptr %13, align 2
  %23 = zext i16 %22 to i32
  %24 = load i32, ptr %11, align 4
  %25 = icmp ult i32 %23, %24
  br i1 %25, label %26, label %39

26:                                               ; preds = %21
  %27 = load ptr, ptr %7, align 8
  %28 = load i32, ptr %10, align 4
  %29 = load i16, ptr %13, align 2
  %30 = zext i16 %29 to i32
  %31 = call ptr (ptr, i32, i32, ptr, ...) @ptvcursor_add_text_with_subtree(ptr noundef %27, i32 noundef -1, i32 noundef %28, ptr noundef @.str.1840, i32 noundef %30)
  %32 = load ptr, ptr %12, align 8
  %33 = load ptr, ptr %7, align 8
  %34 = load ptr, ptr %8, align 8
  call void %32(ptr noundef %33, ptr noundef %34)
  %35 = load ptr, ptr %7, align 8
  call void @ptvcursor_pop_subtree(ptr noundef %35)
  br label %36

36:                                               ; preds = %26
  %37 = load i16, ptr %13, align 2
  %38 = add i16 %37, 1
  store i16 %38, ptr %13, align 2
  br label %21, !llvm.loop !4

39:                                               ; preds = %21
  %40 = load ptr, ptr %7, align 8
  call void @ptvcursor_pop_subtree(ptr noundef %40)
  br label %41

41:                                               ; preds = %39, %6
  ret void
}

; Function Attrs: nounwind uwtable
define internal void @dissect_rx_cqi_indication_rel9_value(ptr noundef %0, ptr noundef %1) #0 {
  %3 = alloca ptr, align 8
  %4 = alloca ptr, align 8
  %5 = alloca ptr, align 8
  %6 = alloca i32, align 4
  %7 = alloca i32, align 4
  store ptr %0, ptr %3, align 8
  store ptr %1, ptr %4, align 8
  %8 = load ptr, ptr %3, align 8
  %9 = load i32, ptr @hf_nfapi_length, align 4
  %10 = call ptr @ptvcursor_add(ptr noundef %8, i32 noundef %9, i32 noundef 2, i32 noundef 0)
  %11 = load ptr, ptr %3, align 8
  %12 = load i32, ptr @hf_nfapi_data_offset, align 4
  %13 = call ptr @ptvcursor_add(ptr noundef %11, i32 noundef %12, i32 noundef 2, i32 noundef 0)
  %14 = load ptr, ptr %3, align 8
  %15 = load i32, ptr @hf_nfapi_ul_cqi, align 4
  %16 = call ptr @ptvcursor_add(ptr noundef %14, i32 noundef %15, i32 noundef 1, i32 noundef 0)
  %17 = load ptr, ptr %3, align 8
  %18 = load i32, ptr @hf_nfapi_number_of_cc_reported, align 4
  %19 = call ptr @ptvcursor_add_ret_uint(ptr noundef %17, i32 noundef %18, i32 noundef 1, i32 noundef 0, ptr noundef %7)
  store ptr %19, ptr %5, align 8
  %20 = load i32, ptr %7, align 4
  %21 = icmp uge i32 %20, 1
  br i1 %21, label %22, label %25

22:                                               ; preds = %2
  %23 = load i32, ptr %7, align 4
  %24 = icmp ule i32 %23, 5
  br i1 %24, label %29, label %25

25:                                               ; preds = %22, %2
  %26 = load ptr, ptr %4, align 8
  %27 = load ptr, ptr %5, align 8
  %28 = call ptr (ptr, ptr, ptr, ptr, ...) @expert_add_info_format(ptr noundef %26, ptr noundef %27, ptr noundef @ei_invalid_range, ptr noundef @.str.2186)
  br label %29

29:                                               ; preds = %25, %22
  %30 = load ptr, ptr %3, align 8
  %31 = load ptr, ptr %4, align 8
  %32 = load i32, ptr @ett_nfapi_cc, align 4
  %33 = load i32, ptr %7, align 4
  call void @dissect_array_value(ptr noundef %30, ptr noundef %31, ptr noundef @.str.2187, i32 noundef %32, i32 noundef %33, ptr noundef @dissect_ri_value)
  %34 = load ptr, ptr %3, align 8
  %35 = load i32, ptr @hf_nfapi_timing_advance, align 4
  %36 = call ptr @ptvcursor_add_ret_uint(ptr noundef %34, i32 noundef %35, i32 noundef 2, i32 noundef 0, ptr noundef %6)
  store ptr %36, ptr %5, align 8
  %37 = load i32, ptr %6, align 4
  %38 = icmp ugt i32 %37, 63
  br i1 %38, label %39, label %43

39:                                               ; preds = %29
  %40 = load ptr, ptr %4, align 8
  %41 = load ptr, ptr %5, align 8
  %42 = call ptr (ptr, ptr, ptr, ptr, ...) @expert_add_info_format(ptr noundef %40, ptr noundef %41, ptr noundef @ei_invalid_range, ptr noundef @.str.2160)
  br label %43

43:                                               ; preds = %39, %29
  %44 = load ptr, ptr %3, align 8
  %45 = load i32, ptr @hf_nfapi_timing_advance_r9, align 4
  %46 = call ptr @ptvcursor_add_ret_uint(ptr noundef %44, i32 noundef %45, i32 noundef 2, i32 noundef 0, ptr noundef %6)
  store ptr %46, ptr %5, align 8
  %47 = load i32, ptr %6, align 4
  %48 = icmp ugt i32 %47, 7690
  br i1 %48, label %49, label %53

49:                                               ; preds = %43
  %50 = load ptr, ptr %4, align 8
  %51 = load ptr, ptr %5, align 8
  %52 = call ptr (ptr, ptr, ptr, ptr, ...) @expert_add_info_format(ptr noundef %50, ptr noundef %51, ptr noundef @ei_invalid_range, ptr noundef @.str.2188)
  br label %53

53:                                               ; preds = %49, %43
  ret void
}