; Function Attrs: nounwind uwtable
define internal void @dissect_rx_cqi_indication_rel9_value(ptr noundef %0, ptr noundef %1) #0 {
  %3 = alloca i32, align 4
  %4 = alloca i32, align 4
  %5 = alloca i32, align 4
  %6 = load i32, ptr @hf_nfapi_length, align 4
  %7 = tail call ptr @ptvcursor_add(ptr noundef %0, i32 noundef %6, i32 noundef 2, i32 noundef 0) #7
  %8 = load i32, ptr @hf_nfapi_data_offset, align 4
  %9 = tail call ptr @ptvcursor_add(ptr noundef %0, i32 noundef %8, i32 noundef 2, i32 noundef 0) #7
  %10 = load i32, ptr @hf_nfapi_ul_cqi, align 4
  %11 = tail call ptr @ptvcursor_add(ptr noundef %0, i32 noundef %10, i32 noundef 1, i32 noundef 0) #7
  %12 = load i32, ptr @hf_nfapi_number_of_cc_reported, align 4
  %13 = call ptr @ptvcursor_add_ret_uint(ptr noundef %0, i32 noundef %12, i32 noundef 1, i32 noundef 0, ptr noundef nonnull %5) #7
  %14 = load i32, ptr %5, align 4
  %15 = add i32 %14, -1
  %or.cond = icmp ult i32 %15, 5
  br i1 %or.cond, label %.thread, label %16

16:                                               ; preds = %2
  %17 = call ptr (ptr, ptr, ptr, ptr, ...) @expert_add_info_format(ptr noundef %1, ptr noundef %13, ptr noundef nonnull @ei_invalid_range, ptr noundef nonnull @.str.2186) #7
  %.pr = load i32, ptr %5, align 4
  %.not.i = icmp eq i32 %.pr, 0
  br i1 %.not.i, label %dissect_array_value.exit, label %.thread

.thread:                                          ; preds = %2, %16
  %18 = phi i32 [ %.pr, %16 ], [ %14, %2 ]
  %19 = load i32, ptr @ett_nfapi_cc, align 4
  %20 = call ptr (ptr, i32, i32, ptr, ...) @ptvcursor_add_text_with_subtree(ptr noundef %0, i32 noundef -1, i32 noundef %19, ptr noundef nonnull @.str.1839, ptr noundef nonnull @.str.2187) #7
  br label %21

21:                                               ; preds = %dissect_ri_value.exit, %.thread
  %22 = phi i32 [ 0, %.thread ], [ %31, %dissect_ri_value.exit ]
  %.016.i = phi i16 [ 0, %.thread ], [ %30, %dissect_ri_value.exit ]
  %23 = call ptr (ptr, i32, i32, ptr, ...) @ptvcursor_add_text_with_subtree(ptr noundef %0, i32 noundef -1, i32 noundef %19, ptr noundef nonnull @.str.1840, i32 noundef %22) #7
  call void @llvm.lifetime.start.p0(i64 4, ptr nonnull %3)
  %24 = load i32, ptr @hf_nfapi_ri, align 4
  %25 = call ptr @ptvcursor_add_ret_uint(ptr noundef %0, i32 noundef %24, i32 noundef 1, i32 noundef 0, ptr noundef nonnull %3) #7
  %26 = load i32, ptr %3, align 4
  %27 = icmp ugt i32 %26, 8
  br i1 %27, label %28, label %dissect_ri_value.exit

28:                                               ; preds = %21
  %29 = call ptr (ptr, ptr, ptr, ptr, ...) @expert_add_info_format(ptr noundef %1, ptr noundef %25, ptr noundef nonnull @ei_invalid_range, ptr noundef nonnull @.str.2185) #7
  br label %dissect_ri_value.exit

dissect_ri_value.exit:                            ; preds = %21, %28
  call void @llvm.lifetime.end.p0(i64 4, ptr nonnull %3)
  call void @ptvcursor_pop_subtree(ptr noundef %0) #7
  %30 = add i16 %.016.i, 1
  %31 = zext i16 %30 to i32
  %32 = icmp ugt i32 %18, %31
  br i1 %32, label %21, label %33, !llvm.loop !4

33:                                               ; preds = %dissect_ri_value.exit
  call void @ptvcursor_pop_subtree(ptr noundef %0) #7
  br label %dissect_array_value.exit

dissect_array_value.exit:                         ; preds = %16, %33
  %34 = load i32, ptr @hf_nfapi_timing_advance, align 4
  %35 = call ptr @ptvcursor_add_ret_uint(ptr noundef %0, i32 noundef %34, i32 noundef 2, i32 noundef 0, ptr noundef nonnull %4) #7
  %36 = load i32, ptr %4, align 4
  %37 = icmp ugt i32 %36, 63
  br i1 %37, label %38, label %40

38:                                               ; preds = %dissect_array_value.exit
  %39 = call ptr (ptr, ptr, ptr, ptr, ...) @expert_add_info_format(ptr noundef %1, ptr noundef %35, ptr noundef nonnull @ei_invalid_range, ptr noundef nonnull @.str.2160) #7
  br label %40

40:                                               ; preds = %38, %dissect_array_value.exit
  %41 = load i32, ptr @hf_nfapi_timing_advance_r9, align 4
  %42 = call ptr @ptvcursor_add_ret_uint(ptr noundef %0, i32 noundef %41, i32 noundef 2, i32 noundef 0, ptr noundef nonnull %4) #7
  %43 = load i32, ptr %4, align 4
  %44 = icmp ugt i32 %43, 7690
  br i1 %44, label %45, label %47

45:                                               ; preds = %40
  %46 = call ptr (ptr, ptr, ptr, ptr, ...) @expert_add_info_format(ptr noundef %1, ptr noundef %42, ptr noundef nonnull @ei_invalid_range, ptr noundef nonnull @.str.2188) #7
  br label %47

47:                                               ; preds = %45, %40
  ret void
}